target datalayout = "e-m:e-p270:32:32-p271:32:32-p272:64:64-i64:64-i128:128-f80:128-n8:16:32:64-S128"
target triple = "x86_64-pc-linux-gnu"

%struct.DdManager = type { %struct.DdNode, ptr, ptr, ptr, ptr, ptr, ptr, ptr, i32, i32, double, double, double, i32, i32, i32, i32, i32, i32, ptr, ptr, %struct.DdSubtable, i32, i32, i32, i32, i32, i32, i32, double, i32, i32, i32, ptr, i64, double, i32, ptr, ptr, ptr, ptr, ptr, ptr, ptr, i32, ptr, ptr, ptr, ptr, ptr, ptr, i32, i32, i32, double, i32, i32, i32, i32, double, double, i32, i32, i32, i32, i32, i32, i32, i32, i32, ptr, ptr, i32, i32, i32, i32, i32, i32, ptr, ptr, ptr, ptr, ptr, ptr, ptr, ptr, i32, i64, i64, i64, i32, i64, i64, double, double, double, double, double, double, i32, ptr, ptr, i64 }
%struct.DdNode = type { i32, i32, ptr, %union.anon, i64 }
%union.anon = type { %struct.DdChildren }
%struct.DdChildren = type { ptr, ptr }
%struct.DdSubtable = type { ptr, i32, i32, i32, i32, i32, i32, i32, i32, i32, i32, i32 }

; Function Attrs: nounwind uwtable
define ptr @Cudd_addTimesPlus(ptr noundef %0, ptr noundef %1, ptr noundef %2, ptr noundef %3, i32 noundef %4) #0 {
  %6 = alloca ptr, align 8
  %7 = alloca ptr, align 8
  %8 = alloca ptr, align 8
  %9 = alloca ptr, align 8
  %10 = alloca ptr, align 8
  %11 = alloca i32, align 4
  %12 = alloca ptr, align 8
  %13 = alloca ptr, align 8
  %14 = alloca ptr, align 8
  %15 = alloca ptr, align 8
  %16 = alloca i32, align 4
  %17 = alloca i32, align 4
  store ptr %0, ptr %7, align 8, !tbaa !3
  store ptr %1, ptr %8, align 8, !tbaa !8
  store ptr %2, ptr %9, align 8, !tbaa !8
  store ptr %3, ptr %10, align 8, !tbaa !10
  store i32 %4, ptr %11, align 4, !tbaa !12
  call void @llvm.lifetime.start.p0(i64 8, ptr %12) #5
  call void @llvm.lifetime.start.p0(i64 8, ptr %13) #5
  call void @llvm.lifetime.start.p0(i64 8, ptr %14) #5
  call void @llvm.lifetime.start.p0(i64 8, ptr %15) #5
  call void @llvm.lifetime.start.p0(i64 4, ptr %16) #5
  %18 = load ptr, ptr %7, align 8, !tbaa !3
  %19 = load ptr, ptr %8, align 8, !tbaa !8
  %20 = load ptr, ptr %9, align 8, !tbaa !8
  %21 = call ptr @Cudd_addApply(ptr noundef %18, ptr noundef @Cudd_addTimes, ptr noundef %19, ptr noundef %20)
  store ptr %21, ptr %14, align 8, !tbaa !8
  %22 = load ptr, ptr %14, align 8, !tbaa !8
  %23 = icmp eq ptr %22, null
  br i1 %23, label %24, label %25

24:                                               ; preds = %5
  store ptr null, ptr %6, align 8
  store i32 1, ptr %17, align 4
  br label %80

25:                                               ; preds = %5
  %26 = load ptr, ptr %14, align 8, !tbaa !8
  call void @Cudd_Ref(ptr noundef %26)
  %27 = load ptr, ptr %7, align 8, !tbaa !3
  %28 = getelementptr inbounds nuw %struct.DdManager, ptr %27, i32 0, i32 1
  %29 = load ptr, ptr %28, align 8, !tbaa !47
  store ptr %29, ptr %13, align 8, !tbaa !8
  call void @Cudd_Ref(ptr noundef %29)
  %30 = load i32, ptr %11, align 4, !tbaa !12
  %31 = sub nsw i32 %30, 1
  store i32 %31, ptr %16, align 4, !tbaa !12
  br label %32

32:                                               ; preds = %57, %25
  %33 = load i32, ptr %16, align 4, !tbaa !12
  %34 = icmp sge i32 %33, 0
  br i1 %34, label %35, label %60

35:                                               ; preds = %32
  %36 = load ptr, ptr %7, align 8, !tbaa !3
  %37 = load ptr, ptr %10, align 8, !tbaa !10
  %38 = load i32, ptr %16, align 4, !tbaa !12
  %39 = sext i32 %38 to i64
  %40 = getelementptr inbounds ptr, ptr %37, i64 %39
  %41 = load ptr, ptr %40, align 8, !tbaa !8
  %42 = load ptr, ptr %13, align 8, !tbaa !8
  %43 = load ptr, ptr %7, align 8, !tbaa !3
  %44 = getelementptr inbounds nuw %struct.DdManager, ptr %43, i32 0, i32 2
  %45 = load ptr, ptr %44, align 8, !tbaa !37
  %46 = call ptr @Cudd_addIte(ptr noundef %36, ptr noundef %41, ptr noundef %42, ptr noundef %45)
  store ptr %46, ptr %12, align 8, !tbaa !8
  %47 = load ptr, ptr %12, align 8, !tbaa !8
  %48 = icmp eq ptr %47, null
  br i1 %48, label %49, label %52

49:                                               ; preds = %35
  %50 = load ptr, ptr %7, align 8, !tbaa !3
  %51 = load ptr, ptr %14, align 8, !tbaa !8
  call void @Cudd_RecursiveDeref(ptr noundef %50, ptr noundef %51)
  store ptr null, ptr %6, align 8
  store i32 1, ptr %17, align 4
  br label %80

52:                                               ; preds = %35
  %53 = load ptr, ptr %12, align 8, !tbaa !8
  call void @Cudd_Ref(ptr noundef %53)
  %54 = load ptr, ptr %7, align 8, !tbaa !3
  %55 = load ptr, ptr %13, align 8, !tbaa !8
  call void @Cudd_RecursiveDeref(ptr noundef %54, ptr noundef %55)
  %56 = load ptr, ptr %12, align 8, !tbaa !8
  store ptr %56, ptr %13, align 8, !tbaa !8
  br label %57

57:                                               ; preds = %52
  %58 = load i32, ptr %16, align 4, !tbaa !12
  %59 = add nsw i32 %58, -1
  store i32 %59, ptr %16, align 4, !tbaa !12
  br label %32, !llvm.loop !48

60:                                               ; preds = %32
  %61 = load ptr, ptr %7, align 8, !tbaa !3
  %62 = load ptr, ptr %14, align 8, !tbaa !8
  %63 = load ptr, ptr %13, align 8, !tbaa !8
  %64 = call ptr @Cudd_addExistAbstract(ptr noundef %61, ptr noundef %62, ptr noundef %63)
  store ptr %64, ptr %15, align 8, !tbaa !8
  %65 = load ptr, ptr %15, align 8, !tbaa !8
  %66 = icmp eq ptr %65, null
  br i1 %66, label %67, label %72

67:                                               ; preds = %60
  %68 = load ptr, ptr %7, align 8, !tbaa !3
  %69 = load ptr, ptr %14, align 8, !tbaa !8
  call void @Cudd_RecursiveDeref(ptr noundef %68, ptr noundef %69)
  %70 = load ptr, ptr %7, align 8, !tbaa !3
  %71 = load ptr, ptr %13, align 8, !tbaa !8
  call void @Cudd_RecursiveDeref(ptr noundef %70, ptr noundef %71)
  store ptr null, ptr %6, align 8
  store i32 1, ptr %17, align 4
  br label %80

72:                                               ; preds = %60
  %73 = load ptr, ptr %15, align 8, !tbaa !8
  call void @Cudd_Ref(ptr noundef %73)
  %74 = load ptr, ptr %7, align 8, !tbaa !3
  %75 = load ptr, ptr %13, align 8, !tbaa !8
  call void @Cudd_RecursiveDeref(ptr noundef %74, ptr noundef %75)
  %76 = load ptr, ptr %7, align 8, !tbaa !3
  %77 = load ptr, ptr %14, align 8, !tbaa !8
  call void @Cudd_RecursiveDeref(ptr noundef %76, ptr noundef %77)
  %78 = load ptr, ptr %15, align 8, !tbaa !8
  call void @Cudd_Deref(ptr noundef %78)
  %79 = load ptr, ptr %15, align 8, !tbaa !8
  store ptr %79, ptr %6, align 8
  store i32 1, ptr %17, align 4
  br label %80

80:                                               ; preds = %72, %67, %49, %24
  call void @llvm.lifetime.end.p0(i64 4, ptr %16) #5
  call void @llvm.lifetime.end.p0(i64 8, ptr %15) #5
  call void @llvm.lifetime.end.p0(i64 8, ptr %14) #5
  call void @llvm.lifetime.end.p0(i64 8, ptr %13) #5
  call void @llvm.lifetime.end.p0(i64 8, ptr %12) #5
  %81 = load ptr, ptr %6, align 8
  ret ptr %81
}