; Function Attrs: nounwind uwtable
define ptr @Cudd_addTimesPlus(ptr noundef %0, ptr noundef %1, ptr noundef %2, ptr noundef readonly captures(none) %3, i32 noundef %4) local_unnamed_addr #0 {
  %6 = tail call ptr @Cudd_addApply(ptr noundef %0, ptr noundef nonnull @Cudd_addTimes, ptr noundef %1, ptr noundef %2) #7
  %7 = icmp eq ptr %6, null
  br i1 %7, label %27, label %8

8:                                                ; preds = %5
  tail call void @Cudd_Ref(ptr noundef nonnull %6) #7
  %9 = getelementptr inbounds nuw i8, ptr %0, i64 40
  %10 = load ptr, ptr %9, align 8, !tbaa !40
  tail call void @Cudd_Ref(ptr noundef %10) #7
  %11 = icmp sgt i32 %4, 0
  br i1 %11, label %.lr.ph, label %._crit_edge

.lr.ph:                                           ; preds = %8
  %12 = getelementptr inbounds nuw i8, ptr %0, i64 48
  %13 = zext nneg i32 %4 to i64
  br label %14

14:                                               ; preds = %.lr.ph, %21
  %indvars.iv = phi i64 [ %13, %.lr.ph ], [ %indvars.iv.next, %21 ]
  %.03743 = phi ptr [ %10, %.lr.ph ], [ %18, %21 ]
  %indvars.iv.next = add nsw i64 %indvars.iv, -1
  %15 = getelementptr inbounds nuw ptr, ptr %3, i64 %indvars.iv.next
  %16 = load ptr, ptr %15, align 8, !tbaa !26
  %17 = load ptr, ptr %12, align 8, !tbaa !32
  %18 = tail call ptr @Cudd_addIte(ptr noundef nonnull %0, ptr noundef %16, ptr noundef %.03743, ptr noundef %17) #7
  %19 = icmp eq ptr %18, null
  br i1 %19, label %20, label %21

20:                                               ; preds = %14
  tail call void @Cudd_RecursiveDeref(ptr noundef nonnull %0, ptr noundef nonnull %6) #7
  br label %27

21:                                               ; preds = %14
  tail call void @Cudd_Ref(ptr noundef nonnull %18) #7
  tail call void @Cudd_RecursiveDeref(ptr noundef nonnull %0, ptr noundef %.03743) #7
  %22 = icmp samesign ugt i64 %indvars.iv, 1
  br i1 %22, label %14, label %._crit_edge, !llvm.loop !41

._crit_edge:                                      ; preds = %21, %8
  %.037.lcssa = phi ptr [ %10, %8 ], [ %18, %21 ]
  %23 = tail call ptr @Cudd_addExistAbstract(ptr noundef nonnull %0, ptr noundef nonnull %6, ptr noundef %.037.lcssa) #7
  %24 = icmp eq ptr %23, null
  br i1 %24, label %25, label %26

25:                                               ; preds = %._crit_edge
  tail call void @Cudd_RecursiveDeref(ptr noundef nonnull %0, ptr noundef nonnull %6) #7
  tail call void @Cudd_RecursiveDeref(ptr noundef nonnull %0, ptr noundef %.037.lcssa) #7
  br label %27

26:                                               ; preds = %._crit_edge
  tail call void @Cudd_Ref(ptr noundef nonnull %23) #7
  tail call void @Cudd_RecursiveDeref(ptr noundef nonnull %0, ptr noundef %.037.lcssa) #7
  tail call void @Cudd_RecursiveDeref(ptr noundef nonnull %0, ptr noundef nonnull %6) #7
  tail call void @Cudd_Deref(ptr noundef nonnull %23) #7
  br label %27

27:                                               ; preds = %5, %26, %25, %20
  %.036 = phi ptr [ null, %20 ], [ null, %25 ], [ %23, %26 ], [ null, %5 ]
  ret ptr %.036
}